target datalayout = "e-m:e-p270:32:32-p271:32:32-p272:64:64-i64:64-i128:128-f80:128-n8:16:32:64-S128"
target triple = "x86_64-pc-linux-gnu"

@.str.482 = private unnamed_addr constant [7 x i8] c"(null)\00", align 1
@.str.483 = private unnamed_addr constant [2 x i8] c":\00", align 1
@.str.484 = private unnamed_addr constant [28 x i8] c"(internal variable: 0x%li\0B)\00", align 1

; Function Attrs: inlinehint nounwind sspstrong uwtable
define internal i64 @rbimpl_strlen(ptr noundef nonnull %0) #5 {
  %2 = alloca ptr, align 8
  store ptr %0, ptr %2, align 8, !tbaa !18
  %3 = load ptr, ptr %2, align 8, !tbaa !18
  %4 = call i64 @strlen(ptr noundef %3) #14
  ret i64 %4
}

; Function Attrs: inlinehint nounwind sspstrong uwtable
define internal i64 @rbimpl_str_cat_cstr(i64 noundef %0, ptr noundef nonnull %1) #5 {
  %3 = alloca i64, align 8
  %4 = alloca ptr, align 8
  %5 = alloca i64, align 8
  store i64 %0, ptr %3, align 8, !tbaa !7
  store ptr %1, ptr %4, align 8, !tbaa !18
  call void @llvm.lifetime.start.p0(i64 8, ptr %5) #13
  %6 = load ptr, ptr %4, align 8, !tbaa !18
  %7 = call i64 @rbimpl_strlen(ptr noundef %6)
  store i64 %7, ptr %5, align 8, !tbaa !7
  %8 = load i64, ptr %3, align 8, !tbaa !7
  %9 = load ptr, ptr %4, align 8, !tbaa !18
  %10 = load i64, ptr %5, align 8, !tbaa !7
  %11 = call i64 @rb_str_cat(i64 noundef %8, ptr noundef %9, i64 noundef %10)
  call void @llvm.lifetime.end.p0(i64 8, ptr %5) #13
  ret i64 %11
}

; Function Attrs: nounwind sspstrong uwtable
define internal void @add_id(i64 noundef %0, i64 noundef %1) #0 {
  %3 = alloca i64, align 8
  %4 = alloca i64, align 8
  %5 = alloca i64, align 8
  store i64 %0, ptr %3, align 8, !tbaa !7
  store i64 %1, ptr %4, align 8, !tbaa !7
  %6 = load i64, ptr %4, align 8, !tbaa !7
  %7 = icmp eq i64 %6, 0
  br i1 %7, label %8, label %11

8:                                                ; preds = %2
  %9 = load i64, ptr %3, align 8, !tbaa !7
  %10 = call i64 @rbimpl_str_cat_cstr(i64 noundef %9, ptr noundef @.str.482)
  br label %27

11:                                               ; preds = %2
  call void @llvm.lifetime.start.p0(i64 8, ptr %5) #13
  %12 = load i64, ptr %4, align 8, !tbaa !7
  %13 = call i64 @rb_id2str(i64 noundef %12)
  store i64 %13, ptr %5, align 8, !tbaa !7
  %14 = load i64, ptr %5, align 8, !tbaa !7
  %15 = icmp ne i64 %14, 0
  br i1 %15, label %16, label %22

16:                                               ; preds = %11
  %17 = load i64, ptr %3, align 8, !tbaa !7
  %18 = call i64 @rbimpl_str_cat_cstr(i64 noundef %17, ptr noundef @.str.483)
  %19 = load i64, ptr %3, align 8, !tbaa !7
  %20 = load i64, ptr %5, align 8, !tbaa !7
  %21 = call i64 @rb_str_concat(i64 noundef %19, i64 noundef %20)
  br label %26

22:                                               ; preds = %11
  %23 = load i64, ptr %3, align 8, !tbaa !7
  %24 = load i64, ptr %4, align 8, !tbaa !7
  %25 = call i64 (i64, ptr, ...) @rb_str_catf(i64 noundef %23, ptr noundef @.str.484, i64 noundef %24)
  br label %26

26:                                               ; preds = %22, %16
  call void @llvm.lifetime.end.p0(i64 8, ptr %5) #13
  br label %27

27:                                               ; preds = %26, %8
  ret void
}