; Function Attrs: nounwind sspstrong uwtable
define internal fastcc void @add_id(i64 noundef %0, i64 noundef %1) unnamed_addr #0 {
  %3 = icmp eq i64 %1, 0
  br i1 %3, label %4, label %6

4:                                                ; preds = %2
  %5 = tail call i64 @rb_str_cat(i64 noundef %0, ptr noundef nonnull @.str.482, i64 noundef 6) #5
  br label %13

6:                                                ; preds = %2
  %7 = tail call i64 @rb_id2str(i64 noundef %1) #5
  %.not = icmp eq i64 %7, 0
  br i1 %.not, label %11, label %8

8:                                                ; preds = %6
  %9 = tail call i64 @rb_str_cat(i64 noundef %0, ptr noundef nonnull @.str.483, i64 noundef 1) #5
  %10 = tail call i64 @rb_str_concat(i64 noundef %0, i64 noundef %7) #5
  br label %13

11:                                               ; preds = %6
  %12 = tail call i64 (i64, ptr, ...) @rb_str_catf(i64 noundef %0, ptr noundef nonnull @.str.484, i64 noundef %1) #5
  br label %13

13:                                               ; preds = %8, %11, %4
  ret void
}